target datalayout = "e-m:e-p270:32:32-p271:32:32-p272:64:64-i64:64-i128:128-f80:128-n8:16:32:64-S128"
target triple = "x86_64-pc-linux-gnu"

%struct.lv_subject_t = type { %struct.lv_ll_t, %union.lv_subject_value_t, %union.lv_subject_value_t, ptr, i32 }
%struct.lv_ll_t = type { i32, ptr, ptr }
%union.lv_subject_value_t = type { ptr }

; Function Attrs: inlinehint nounwind uwtable
define internal void @lv_memzero(ptr noundef %0, i64 noundef %1) #1 {
  %3 = alloca ptr, align 8
  %4 = alloca i64, align 8
  store ptr %0, ptr %3, align 8, !tbaa !3
  store i64 %1, ptr %4, align 8, !tbaa !10
  %5 = load ptr, ptr %3, align 8, !tbaa !3
  %6 = load i64, ptr %4, align 8, !tbaa !10
  call void @lv_memset(ptr noundef %5, i8 noundef zeroext 0, i64 noundef %6)
  ret void
}

; Function Attrs: nounwind uwtable
define void @lv_subject_init_string(ptr noundef %0, ptr noundef %1, ptr noundef %2, i64 noundef %3, ptr noundef %4) #0 {
  %6 = alloca ptr, align 8
  %7 = alloca ptr, align 8
  %8 = alloca ptr, align 8
  %9 = alloca i64, align 8
  %10 = alloca ptr, align 8
  store ptr %0, ptr %6, align 8, !tbaa !3
  store ptr %1, ptr %7, align 8, !tbaa !12
  store ptr %2, ptr %8, align 8, !tbaa !12
  store i64 %3, ptr %9, align 8, !tbaa !10
  store ptr %4, ptr %10, align 8, !tbaa !12
  %11 = load ptr, ptr %6, align 8, !tbaa !3
  call void @lv_memzero(ptr noundef %11, i64 noundef 56)
  %12 = load ptr, ptr %7, align 8, !tbaa !12
  %13 = load ptr, ptr %10, align 8, !tbaa !12
  %14 = load i64, ptr %9, align 8, !tbaa !10
  %15 = call i64 @lv_strlcpy(ptr noundef %12, ptr noundef %13, i64 noundef %14)
  %16 = load ptr, ptr %8, align 8, !tbaa !12
  %17 = icmp ne ptr %16, null
  br i1 %17, label %18, label %23

18:                                               ; preds = %5
  %19 = load ptr, ptr %8, align 8, !tbaa !12
  %20 = load ptr, ptr %10, align 8, !tbaa !12
  %21 = load i64, ptr %9, align 8, !tbaa !10
  %22 = call i64 @lv_strlcpy(ptr noundef %19, ptr noundef %20, i64 noundef %21)
  br label %23

23:                                               ; preds = %18, %5
  %24 = load ptr, ptr %6, align 8, !tbaa !3
  %25 = getelementptr inbounds nuw %struct.lv_subject_t, ptr %24, i32 0, i32 4
  %26 = load i32, ptr %25, align 8
  %27 = and i32 %26, -16
  %28 = or i32 %27, 6
  store i32 %28, ptr %25, align 8
  %29 = load i64, ptr %9, align 8, !tbaa !10
  %30 = trunc i64 %29 to i32
  %31 = load ptr, ptr %6, align 8, !tbaa !3
  %32 = getelementptr inbounds nuw %struct.lv_subject_t, ptr %31, i32 0, i32 4
  %33 = load i32, ptr %32, align 8
  %34 = and i32 %30, 16777215
  %35 = shl i32 %34, 4
  %36 = and i32 %33, -268435441
  %37 = or i32 %36, %35
  store i32 %37, ptr %32, align 8
  %38 = load ptr, ptr %7, align 8, !tbaa !12
  %39 = load ptr, ptr %6, align 8, !tbaa !3
  %40 = getelementptr inbounds nuw %struct.lv_subject_t, ptr %39, i32 0, i32 1
  store ptr %38, ptr %40, align 8, !tbaa !9
  %41 = load ptr, ptr %8, align 8, !tbaa !12
  %42 = load ptr, ptr %6, align 8, !tbaa !3
  %43 = getelementptr inbounds nuw %struct.lv_subject_t, ptr %42, i32 0, i32 2
  store ptr %41, ptr %43, align 8, !tbaa !9
  %44 = load ptr, ptr %6, align 8, !tbaa !3
  %45 = getelementptr inbounds nuw %struct.lv_subject_t, ptr %44, i32 0, i32 0
  call void @lv_ll_init(ptr noundef %45, i32 noundef 40)
  ret void
}