; Function Attrs: nounwind uwtable
define void @lv_subject_init_string(ptr noundef %0, ptr noundef %1, ptr noundef %2, i64 noundef %3, ptr noundef %4) local_unnamed_addr #0 {
  tail call void @lv_memset(ptr noundef %0, i8 noundef zeroext 0, i64 noundef 56) #9
  %6 = tail call i64 @lv_strlcpy(ptr noundef %1, ptr noundef %4, i64 noundef %3) #9
  %.not = icmp eq ptr %2, null
  br i1 %.not, label %9, label %7

7:                                                ; preds = %5
  %8 = tail call i64 @lv_strlcpy(ptr noundef nonnull %2, ptr noundef %4, i64 noundef %3) #9
  br label %9

9:                                                ; preds = %7, %5
  %10 = getelementptr inbounds nuw i8, ptr %0, i64 48
  %11 = load i32, ptr %10, align 8
  %12 = and i32 %11, -268435456
  %13 = trunc i64 %3 to i32
  %14 = shl i32 %13, 4
  %15 = and i32 %14, 268435440
  %16 = or disjoint i32 %15, %12
  %17 = or disjoint i32 %16, 6
  store i32 %17, ptr %10, align 8
  %18 = getelementptr inbounds nuw i8, ptr %0, i64 24
  store ptr %1, ptr %18, align 8, !tbaa !3
  %19 = getelementptr inbounds nuw i8, ptr %0, i64 32
  store ptr %2, ptr %19, align 8, !tbaa !3
  tail call void @lv_ll_init(ptr noundef %0, i32 noundef 40) #9
  ret void
}